target datalayout = "e-m:e-p270:32:32-p271:32:32-p272:64:64-i64:64-i128:128-f80:128-n8:16:32:64-S128"
target triple = "x86_64-pc-linux-gnu"

%struct._zend_executor_globals = type { %struct._zval_struct, %struct._zval_struct, [32 x ptr], ptr, ptr, %struct._zend_array, %struct._zend_array, ptr, i32, i8, %struct._zval_struct, i32, ptr, ptr, ptr, ptr, ptr, ptr, i64, ptr, ptr, i32, ptr, i32, i64, i32, i32, i32, i8, i8, %struct.zend_atomic_bool_s, %struct.zend_atomic_bool_s, ptr, i64, ptr, ptr, %struct._zend_array, %struct._zend_array, i32, i8, %struct._zval_struct, %struct._zval_struct, %struct._zend_stack, %struct._zend_stack, %struct._zend_stack, ptr, i32, i32, i64, ptr, ptr, ptr, %struct._zend_objects_store, %struct._zend_lazy_objects_store, ptr, ptr, ptr, [3 x %struct._zend_op], ptr, i8, i8, i64, i32, i32, ptr, [16 x %struct._HashTableIterator], ptr, %union._zend_function, %struct._zend_op, %struct._zend_array, i64, %struct.zend_get_gc_buffer, ptr, ptr, ptr, i64, i8, i32, ptr, ptr, i64, %struct._zend_call_stack, i64, i64, %struct._zend_strtod_state, [6 x ptr] }
%struct.zend_atomic_bool_s = type { i8 }
%struct._zval_struct = type { %union._zend_value, %union.anon.0, %union.anon.3 }
%union._zend_value = type { i64 }
%union.anon.0 = type { i32 }
%union.anon.3 = type { i32 }
%struct._zend_stack = type { i32, i32, i32, ptr }
%struct._zend_objects_store = type { ptr, i32, i32, i32 }
%struct._zend_lazy_objects_store = type { %struct._zend_array }
%struct._HashTableIterator = type { ptr, i32, i32 }
%union._zend_function = type { %struct._zend_op_array }
%struct._zend_op_array = type { i8, [3 x i8], i32, ptr, ptr, ptr, i32, i32, ptr, ptr, ptr, ptr, i32, ptr, i32, i32, i32, ptr, ptr, ptr, ptr, ptr, i32, i32, ptr, ptr, ptr, i32, i32, i32, i32, ptr, ptr, [6 x ptr] }
%struct._zend_op = type { ptr, %union._znode_op, %union._znode_op, %union._znode_op, i32, i32, i8, i8, i8, i8 }
%union._znode_op = type { i32 }
%struct._zend_array = type { %struct._zend_refcounted_h, %union.anon.5, i32, %union.anon.7, i32, i32, i32, i32, i64, ptr }
%struct._zend_refcounted_h = type { i32, %union.anon }
%union.anon = type { i32 }
%union.anon.5 = type { i32 }
%union.anon.7 = type { ptr }
%struct.zend_get_gc_buffer = type { ptr, ptr, ptr }
%struct._zend_call_stack = type { ptr, i64 }
%struct._zend_strtod_state = type { [8 x ptr], ptr, ptr }
%struct._finfo_object = type { ptr, %struct._zend_object }
%struct._zend_object = type { %struct._zend_refcounted_h, i32, i32, ptr, ptr, ptr, [1 x %struct._zval_struct] }
%struct._php_fileinfo = type { i64, ptr }
%struct._zend_execute_data = type { ptr, ptr, ptr, ptr, %struct._zval_struct, ptr, ptr, ptr, ptr }
%struct.anon.1 = type { i8, i8, %union.anon.2 }
%union.anon.2 = type { i16 }

@finfo_class_entry = hidden global ptr null, align 8
@executor_globals = external global %struct._zend_executor_globals, align 8
@.str.12 = private unnamed_addr constant [3 x i8] c"Ol\00", align 1
@.str.13 = private unnamed_addr constant [21 x i8] c"Invalid finfo object\00", align 1
@.str.14 = private unnamed_addr constant [33 x i8] c"Failed to set option '%ld' %d:%s\00", align 1

; Function Attrs: inlinehint nounwind uwtable
define internal ptr @php_finfo_fetch_object(ptr noundef %0) #6 {
  %2 = alloca ptr, align 8
  store ptr %0, ptr %2, align 8, !tbaa !39
  %3 = load ptr, ptr %2, align 8, !tbaa !39
  %4 = getelementptr inbounds i8, ptr %3, i64 -8
  ret ptr %4
}

; Function Attrs: alwaysinline nounwind uwtable
define internal zeroext i8 @zval_get_type(ptr noundef %0) #2 {
  %2 = alloca ptr, align 8
  store ptr %0, ptr %2, align 8, !tbaa !52
  %3 = load ptr, ptr %2, align 8, !tbaa !52
  %4 = getelementptr inbounds nuw %struct._zval_struct, ptr %3, i32 0, i32 1
  %5 = getelementptr inbounds nuw %struct.anon.1, ptr %4, i32 0, i32 0
  %6 = load i8, ptr %5, align 8, !tbaa !16
  ret i8 %6
}

; Function Attrs: nounwind uwtable
define hidden void @zif_finfo_set_flags(ptr noundef %0, ptr noundef %1) #0 {
  %3 = alloca ptr, align 8
  %4 = alloca ptr, align 8
  %5 = alloca i64, align 8
  %6 = alloca ptr, align 8
  %7 = alloca ptr, align 8
  %8 = alloca i32, align 4
  %9 = alloca ptr, align 8
  store ptr %0, ptr %3, align 8, !tbaa !50
  store ptr %1, ptr %4, align 8, !tbaa !52
  call void @llvm.lifetime.start.p0(i64 8, ptr %5) #11
  call void @llvm.lifetime.start.p0(i64 8, ptr %6) #11
  call void @llvm.lifetime.start.p0(i64 8, ptr %7) #11
  %10 = load ptr, ptr %3, align 8, !tbaa !50
  %11 = getelementptr inbounds nuw %struct._zend_execute_data, ptr %10, i32 0, i32 4
  %12 = getelementptr inbounds nuw %struct._zval_struct, ptr %11, i32 0, i32 2
  %13 = load i32, ptr %12, align 4, !tbaa !16
  %14 = load ptr, ptr %3, align 8, !tbaa !50
  %15 = getelementptr inbounds nuw %struct._zend_execute_data, ptr %14, i32 0, i32 4
  %16 = call zeroext i8 @zval_get_type(ptr noundef %15)
  %17 = zext i8 %16 to i32
  %18 = icmp eq i32 %17, 8
  br i1 %18, label %19, label %22

19:                                               ; preds = %2
  %20 = load ptr, ptr %3, align 8, !tbaa !50
  %21 = getelementptr inbounds nuw %struct._zend_execute_data, ptr %20, i32 0, i32 4
  br label %23

22:                                               ; preds = %2
  br label %23

23:                                               ; preds = %22, %19
  %24 = phi ptr [ %21, %19 ], [ null, %22 ]
  %25 = load ptr, ptr @finfo_class_entry, align 8, !tbaa !4
  %26 = call i32 (i32, ptr, ptr, ...) @zend_parse_method_parameters(i32 noundef %13, ptr noundef %24, ptr noundef @.str.12, ptr noundef %7, ptr noundef %25, ptr noundef %5)
  %27 = icmp eq i32 %26, -1
  br i1 %27, label %28, label %34

28:                                               ; preds = %23
  br label %29

29:                                               ; preds = %28
  %30 = load ptr, ptr getelementptr inbounds nuw (%struct._zend_executor_globals, ptr @executor_globals, i32 0, i32 54), align 8, !tbaa !55
  %31 = icmp ne ptr %30, null
  call void @llvm.assume(i1 %31)
  store i32 1, ptr %8, align 4
  br label %91

32:                                               ; No predecessors!
  br label %33

33:                                               ; preds = %32
  br label %34

34:                                               ; preds = %33, %23
  call void @llvm.lifetime.start.p0(i64 8, ptr %9) #11
  %35 = load ptr, ptr %7, align 8, !tbaa !52
  %36 = getelementptr inbounds nuw %struct._zval_struct, ptr %35, i32 0, i32 0
  %37 = load ptr, ptr %36, align 8, !tbaa !16
  %38 = call ptr @php_finfo_fetch_object(ptr noundef %37)
  store ptr %38, ptr %9, align 8, !tbaa !9
  %39 = load ptr, ptr %9, align 8, !tbaa !9
  %40 = getelementptr inbounds nuw %struct._finfo_object, ptr %39, i32 0, i32 0
  %41 = load ptr, ptr %40, align 8, !tbaa !41
  store ptr %41, ptr %6, align 8, !tbaa !78
  %42 = load ptr, ptr %6, align 8, !tbaa !78
  %43 = icmp ne ptr %42, null
  br i1 %43, label %50, label %44

44:                                               ; preds = %34
  call void (ptr, ptr, ...) @zend_throw_error(ptr noundef null, ptr noundef @.str.13)
  br label %45

45:                                               ; preds = %44
  %46 = load ptr, ptr getelementptr inbounds nuw (%struct._zend_executor_globals, ptr @executor_globals, i32 0, i32 54), align 8, !tbaa !55
  %47 = icmp ne ptr %46, null
  call void @llvm.assume(i1 %47)
  store i32 1, ptr %8, align 4
  br label %51

48:                                               ; No predecessors!
  br label %49

49:                                               ; preds = %48
  br label %50

50:                                               ; preds = %49, %34
  store i32 0, ptr %8, align 4
  br label %51

51:                                               ; preds = %50, %45
  call void @llvm.lifetime.end.p0(i64 8, ptr %9) #11
  %52 = load i32, ptr %8, align 4
  switch i32 %52, label %91 [
    i32 0, label %53
  ]

53:                                               ; preds = %51
  %54 = load ptr, ptr %6, align 8, !tbaa !78
  %55 = getelementptr inbounds nuw %struct._php_fileinfo, ptr %54, i32 0, i32 1
  %56 = load ptr, ptr %55, align 8, !tbaa !45
  %57 = load i64, ptr %5, align 8, !tbaa !11
  %58 = trunc i64 %57 to i32
  %59 = call i32 @magic_setflags(ptr noundef %56, i32 noundef %58)
  %60 = icmp eq i32 %59, -1
  br i1 %60, label %61, label %79

61:                                               ; preds = %53
  %62 = load i64, ptr %5, align 8, !tbaa !11
  %63 = load ptr, ptr %6, align 8, !tbaa !78
  %64 = getelementptr inbounds nuw %struct._php_fileinfo, ptr %63, i32 0, i32 1
  %65 = load ptr, ptr %64, align 8, !tbaa !45
  %66 = call i32 @magic_errno(ptr noundef %65)
  %67 = load ptr, ptr %6, align 8, !tbaa !78
  %68 = getelementptr inbounds nuw %struct._php_fileinfo, ptr %67, i32 0, i32 1
  %69 = load ptr, ptr %68, align 8, !tbaa !45
  %70 = call ptr @magic_error(ptr noundef %69)
  call void (ptr, i32, ptr, ...) @php_error_docref(ptr noundef null, i32 noundef 2, ptr noundef @.str.14, i64 noundef %62, i32 noundef %66, ptr noundef %70)
  br label %71

71:                                               ; preds = %61
  br label %72

72:                                               ; preds = %71
  %73 = load ptr, ptr %4, align 8, !tbaa !52
  %74 = getelementptr inbounds nuw %struct._zval_struct, ptr %73, i32 0, i32 1
  store i32 2, ptr %74, align 8, !tbaa !16
  br label %75

75:                                               ; preds = %72
  br label %76

76:                                               ; preds = %75
  store i32 1, ptr %8, align 4
  br label %91

77:                                               ; No predecessors!
  br label %78

78:                                               ; preds = %77
  br label %79

79:                                               ; preds = %78, %53
  %80 = load i64, ptr %5, align 8, !tbaa !11
  %81 = load ptr, ptr %6, align 8, !tbaa !78
  %82 = getelementptr inbounds nuw %struct._php_fileinfo, ptr %81, i32 0, i32 0
  store i64 %80, ptr %82, align 8, !tbaa !79
  br label %83

83:                                               ; preds = %79
  br label %84

84:                                               ; preds = %83
  %85 = load ptr, ptr %4, align 8, !tbaa !52
  %86 = getelementptr inbounds nuw %struct._zval_struct, ptr %85, i32 0, i32 1
  store i32 3, ptr %86, align 8, !tbaa !16
  br label %87

87:                                               ; preds = %84
  br label %88

88:                                               ; preds = %87
  store i32 1, ptr %8, align 4
  br label %91

89:                                               ; No predecessors!
  br label %90

90:                                               ; preds = %89
  store i32 0, ptr %8, align 4
  br label %91

91:                                               ; preds = %90, %88, %76, %51, %29
  call void @llvm.lifetime.end.p0(i64 8, ptr %7) #11
  call void @llvm.lifetime.end.p0(i64 8, ptr %6) #11
  call void @llvm.lifetime.end.p0(i64 8, ptr %5) #11
  %92 = load i32, ptr %8, align 4
  switch i32 %92, label %94 [
    i32 0, label %93
    i32 1, label %93
  ]

93:                                               ; preds = %91, %91
  ret void

94:                                               ; preds = %91
  unreachable
}