; Function Attrs: nounwind uwtable
define hidden void @zif_finfo_set_flags(ptr noundef %0, ptr noundef writeonly captures(none) %1) #0 {
  %3 = alloca i64, align 8
  %4 = alloca ptr, align 8
  call void @llvm.lifetime.start.p0(i64 8, ptr nonnull %3) #9
  call void @llvm.lifetime.start.p0(i64 8, ptr nonnull %4) #9
  %5 = getelementptr inbounds nuw i8, ptr %0, i64 32
  %6 = getelementptr inbounds nuw i8, ptr %0, i64 44
  %7 = load i32, ptr %6, align 4, !tbaa !30
  %8 = getelementptr inbounds nuw i8, ptr %0, i64 40
  %9 = load i8, ptr %8, align 8, !tbaa !30
  %10 = icmp eq i8 %9, 8
  %11 = select i1 %10, ptr %5, ptr null
  %12 = load ptr, ptr @finfo_class_entry, align 8, !tbaa !31
  %13 = call i32 (i32, ptr, ptr, ...) @zend_parse_method_parameters(i32 noundef %7, ptr noundef %11, ptr noundef nonnull @.str.12, ptr noundef nonnull %4, ptr noundef %12, ptr noundef nonnull %3) #9
  %14 = icmp eq i32 %13, -1
  br i1 %14, label %15, label %18

15:                                               ; preds = %2
  %16 = load ptr, ptr getelementptr inbounds nuw (i8, ptr @executor_globals, i64 960), align 8, !tbaa !47
  %17 = icmp ne ptr %16, null
  call void @llvm.assume(i1 %17)
  br label %41

18:                                               ; preds = %2
  %19 = load ptr, ptr %4, align 8, !tbaa !74
  %20 = load ptr, ptr %19, align 8, !tbaa !30
  %21 = getelementptr inbounds i8, ptr %20, i64 -8
  %22 = load ptr, ptr %21, align 8, !tbaa !37
  %.not.not = icmp eq ptr %22, null
  br i1 %.not.not, label %23, label %.critedge

23:                                               ; preds = %18
  call void (ptr, ptr, ...) @zend_throw_error(ptr noundef null, ptr noundef nonnull @.str.13) #9
  %24 = load ptr, ptr getelementptr inbounds nuw (i8, ptr @executor_globals, i64 960), align 8, !tbaa !47
  %25 = icmp ne ptr %24, null
  call void @llvm.assume(i1 %25)
  br label %41

.critedge:                                        ; preds = %18
  %26 = getelementptr inbounds nuw i8, ptr %22, i64 8
  %27 = load ptr, ptr %26, align 8, !tbaa !41
  %28 = load i64, ptr %3, align 8, !tbaa !44
  %29 = trunc i64 %28 to i32
  %30 = call i32 @magic_setflags(ptr noundef %27, i32 noundef %29) #9
  %31 = icmp eq i32 %30, -1
  %32 = load i64, ptr %3, align 8, !tbaa !44
  br i1 %31, label %33, label %39

33:                                               ; preds = %.critedge
  %34 = load ptr, ptr %26, align 8, !tbaa !41
  %35 = call i32 @magic_errno(ptr noundef %34) #9
  %36 = load ptr, ptr %26, align 8, !tbaa !41
  %37 = call ptr @magic_error(ptr noundef %36) #9
  call void (ptr, i32, ptr, ...) @php_error_docref(ptr noundef null, i32 noundef 2, ptr noundef nonnull @.str.14, i64 noundef %32, i32 noundef %35, ptr noundef %37) #9
  %38 = getelementptr inbounds nuw i8, ptr %1, i64 8
  store i32 2, ptr %38, align 8, !tbaa !30
  br label %41

39:                                               ; preds = %.critedge
  store i64 %32, ptr %22, align 8, !tbaa !73
  %40 = getelementptr inbounds nuw i8, ptr %1, i64 8
  store i32 3, ptr %40, align 8, !tbaa !30
  br label %41

41:                                               ; preds = %23, %39, %33, %15
  call void @llvm.lifetime.end.p0(i64 8, ptr nonnull %4) #9
  call void @llvm.lifetime.end.p0(i64 8, ptr nonnull %3) #9
  ret void
}